target datalayout = "e-m:e-p270:32:32-p271:32:32-p272:64:64-i64:64-i128:128-f80:128-n8:16:32:64-S128"
target triple = "x86_64-pc-linux-gnu"

%struct.XTextProperty = type { ptr, i64, i32, i64 }

@X11_XFree = external global ptr, align 8
@X11_XInternAtom = external global ptr, align 8
@X11_XFlush = external global ptr, align 8
@.str.36 = private unnamed_addr constant [13 x i8] c"_NET_WM_NAME\00", align 1
@X11_XmbTextListToTextProperty = external global ptr, align 8
@X11_XSupportsLocale = external global ptr, align 8
@.str.37 = private unnamed_addr constant [59 x i8] c"Current locale not supported by X server, cannot continue.\00", align 1
@X11_XSetTextProperty = external global ptr, align 8
@.str.38 = private unnamed_addr constant [58 x i8] c"%d characters were not convertible to the current locale!\00", align 1
@X11_Xutf8TextListToTextProperty = external global ptr, align 8
@.str.39 = private unnamed_addr constant [90 x i8] c"Failed to convert title to UTF8! Bad encoding, or bad Xorg encoding? Window title: \C2\AB%s\C2\BB\00", align 1

; Function Attrs: nounwind uwtable
define hidden zeroext i1 @SDL_X11_SetWindowTitle(ptr noundef %0, i64 noundef %1, ptr noundef %2) #0 {
  %4 = alloca i1, align 1
  %5 = alloca ptr, align 8
  %6 = alloca i64, align 8
  %7 = alloca ptr, align 8
  %8 = alloca i64, align 8
  %9 = alloca %struct.XTextProperty, align 8
  %10 = alloca i32, align 4
  %11 = alloca i32, align 4
  %12 = alloca i32, align 4
  store ptr %0, ptr %5, align 8
  store i64 %1, ptr %6, align 8
  store ptr %2, ptr %7, align 8
  call void @llvm.lifetime.start.p0(i64 8, ptr %8) #7
  %13 = load ptr, ptr @X11_XInternAtom, align 8
  %14 = load ptr, ptr %5, align 8
  %15 = call i64 %13(ptr noundef %14, ptr noundef @.str.36, i32 noundef 0)
  store i64 %15, ptr %8, align 8
  call void @llvm.lifetime.start.p0(i64 32, ptr %9) #7
  call void @llvm.lifetime.start.p0(i64 4, ptr %10) #7
  %16 = load ptr, ptr @X11_XmbTextListToTextProperty, align 8
  %17 = load ptr, ptr %5, align 8
  %18 = call i32 %16(ptr noundef %17, ptr noundef %7, i32 noundef 1, i32 noundef 2, ptr noundef %9)
  store i32 %18, ptr %10, align 4
  call void @llvm.lifetime.start.p0(i64 4, ptr %11) #7
  %19 = load ptr, ptr @X11_XSupportsLocale, align 8
  %20 = call i32 %19()
  %21 = icmp ne i32 %20, 1
  br i1 %21, label %22, label %24

22:                                               ; preds = %3
  %23 = call zeroext i1 (ptr, ...) @SDL_SetError_REAL(ptr noundef @.str.37)
  store i1 %23, ptr %4, align 1
  store i32 1, ptr %12, align 4
  br label %64

24:                                               ; preds = %3
  %25 = load i32, ptr %10, align 4
  %26 = icmp eq i32 %25, 0
  br i1 %26, label %27, label %35

27:                                               ; preds = %24
  %28 = load ptr, ptr @X11_XSetTextProperty, align 8
  %29 = load ptr, ptr %5, align 8
  %30 = load i64, ptr %6, align 8
  call void %28(ptr noundef %29, i64 noundef %30, ptr noundef %9, i64 noundef 39)
  %31 = load ptr, ptr @X11_XFree, align 8
  %32 = getelementptr inbounds nuw %struct.XTextProperty, ptr %9, i32 0, i32 0
  %33 = load ptr, ptr %32, align 8
  %34 = call i32 %31(ptr noundef %33)
  br label %42

35:                                               ; preds = %24
  %36 = load i32, ptr %10, align 4
  %37 = icmp slt i32 %36, 0
  br i1 %37, label %38, label %40

38:                                               ; preds = %35
  %39 = call zeroext i1 @SDL_OutOfMemory_REAL()
  store i1 %39, ptr %4, align 1
  store i32 1, ptr %12, align 4
  br label %64

40:                                               ; preds = %35
  %41 = load i32, ptr %10, align 4
  call void (i32, ptr, ...) @SDL_LogDebug_REAL(i32 noundef 5, ptr noundef @.str.38, i32 noundef %41)
  store i1 true, ptr %4, align 1
  store i32 1, ptr %12, align 4
  br label %64

42:                                               ; preds = %27
  %43 = load ptr, ptr @X11_Xutf8TextListToTextProperty, align 8
  %44 = load ptr, ptr %5, align 8
  %45 = call i32 %43(ptr noundef %44, ptr noundef %7, i32 noundef 1, i32 noundef 4, ptr noundef %9)
  store i32 %45, ptr %11, align 4
  %46 = load i32, ptr %11, align 4
  %47 = icmp eq i32 %46, 0
  br i1 %47, label %48, label %57

48:                                               ; preds = %42
  %49 = load ptr, ptr @X11_XSetTextProperty, align 8
  %50 = load ptr, ptr %5, align 8
  %51 = load i64, ptr %6, align 8
  %52 = load i64, ptr %8, align 8
  call void %49(ptr noundef %50, i64 noundef %51, ptr noundef %9, i64 noundef %52)
  %53 = load ptr, ptr @X11_XFree, align 8
  %54 = getelementptr inbounds nuw %struct.XTextProperty, ptr %9, i32 0, i32 0
  %55 = load ptr, ptr %54, align 8
  %56 = call i32 %53(ptr noundef %55)
  br label %60

57:                                               ; preds = %42
  %58 = load ptr, ptr %7, align 8
  %59 = call zeroext i1 (ptr, ...) @SDL_SetError_REAL(ptr noundef @.str.39, ptr noundef %58)
  store i1 %59, ptr %4, align 1
  store i32 1, ptr %12, align 4
  br label %64

60:                                               ; preds = %48
  %61 = load ptr, ptr @X11_XFlush, align 8
  %62 = load ptr, ptr %5, align 8
  %63 = call i32 %61(ptr noundef %62)
  store i1 true, ptr %4, align 1
  store i32 1, ptr %12, align 4
  br label %64

64:                                               ; preds = %60, %57, %40, %38, %22
  call void @llvm.lifetime.end.p0(i64 4, ptr %11) #7
  call void @llvm.lifetime.end.p0(i64 4, ptr %10) #7
  call void @llvm.lifetime.end.p0(i64 32, ptr %9) #7
  call void @llvm.lifetime.end.p0(i64 8, ptr %8) #7
  %65 = load i1, ptr %4, align 1
  ret i1 %65
}