; Function Attrs: nounwind uwtable
define hidden zeroext i1 @SDL_X11_SetWindowTitle(ptr noundef %0, i64 noundef %1, ptr noundef %2) local_unnamed_addr #0 {
  %4 = alloca ptr, align 8
  %5 = alloca %struct.XTextProperty, align 8
  store ptr %2, ptr %4, align 8
  %6 = load ptr, ptr @X11_XInternAtom, align 8
  %7 = tail call i64 %6(ptr noundef %0, ptr noundef nonnull @.str.36, i32 noundef 0) #12
  call void @llvm.lifetime.start.p0(i64 32, ptr nonnull %5) #12
  %8 = load ptr, ptr @X11_XmbTextListToTextProperty, align 8
  %9 = call i32 %8(ptr noundef %0, ptr noundef nonnull %4, i32 noundef 1, i32 noundef 2, ptr noundef nonnull %5) #12
  %10 = load ptr, ptr @X11_XSupportsLocale, align 8
  %11 = call i32 %10() #12
  %.not = icmp eq i32 %11, 1
  br i1 %.not, label %14, label %12

12:                                               ; preds = %3
  %13 = call zeroext i1 (ptr, ...) @SDL_SetError_REAL(ptr noundef nonnull @.str.37) #12
  br label %39

14:                                               ; preds = %3
  %15 = icmp eq i32 %9, 0
  br i1 %15, label %16, label %24

16:                                               ; preds = %14
  %17 = load ptr, ptr @X11_XSetTextProperty, align 8
  call void %17(ptr noundef %0, i64 noundef %1, ptr noundef nonnull %5, i64 noundef 39) #12
  %18 = load ptr, ptr @X11_XFree, align 8
  %19 = load ptr, ptr %5, align 8
  %20 = call i32 %18(ptr noundef %19) #12
  %21 = load ptr, ptr @X11_Xutf8TextListToTextProperty, align 8
  %22 = call i32 %21(ptr noundef %0, ptr noundef nonnull %4, i32 noundef 1, i32 noundef 4, ptr noundef nonnull %5) #12
  %23 = icmp eq i32 %22, 0
  br i1 %23, label %29, label %36

24:                                               ; preds = %14
  %25 = icmp slt i32 %9, 0
  br i1 %25, label %26, label %28

26:                                               ; preds = %24
  %27 = call zeroext i1 @SDL_OutOfMemory_REAL() #12
  br label %39

28:                                               ; preds = %24
  call void (i32, ptr, ...) @SDL_LogDebug_REAL(i32 noundef 5, ptr noundef nonnull @.str.38, i32 noundef %9) #12
  br label %39

29:                                               ; preds = %16
  %30 = load ptr, ptr @X11_XSetTextProperty, align 8
  call void %30(ptr noundef %0, i64 noundef %1, ptr noundef nonnull %5, i64 noundef %7) #12
  %31 = load ptr, ptr @X11_XFree, align 8
  %32 = load ptr, ptr %5, align 8
  %33 = call i32 %31(ptr noundef %32) #12
  %34 = load ptr, ptr @X11_XFlush, align 8
  %35 = call i32 %34(ptr noundef %0) #12
  br label %39

36:                                               ; preds = %16
  %37 = load ptr, ptr %4, align 8
  %38 = call zeroext i1 (ptr, ...) @SDL_SetError_REAL(ptr noundef nonnull @.str.39, ptr noundef %37) #12
  br label %39

39:                                               ; preds = %29, %36, %28, %26, %12
  %.0 = phi i1 [ %13, %12 ], [ true, %29 ], [ %38, %36 ], [ %27, %26 ], [ true, %28 ]
  call void @llvm.lifetime.end.p0(i64 32, ptr nonnull %5) #12
  ret i1 %.0
}